; Function Attrs: mustprogress uwtable
define internal void @"_ZNSt17_Function_handlerIFvPKcEZ4mainE4$_12E9_M_invokeERKSt9_Any_dataOS1_"(ptr nocapture noundef nonnull readonly align 8 dereferenceable(16) %0, ptr nocapture noundef nonnull readonly align 8 dereferenceable(8) %1) #14 align 2 personality ptr @__gxx_personality_v0 {
  %.val = load ptr, ptr %0, align 8
  %.val2 = load ptr, ptr %1, align 8
  %3 = tail call noalias noundef nonnull dereferenceable(16) ptr @_Znwm(i64 noundef 16) #32
  store ptr getelementptr inbounds ({ [7 x ptr] }, ptr @_ZTV17cache_memtracer_t, i64 0, i32 0, i64 2), ptr %3, align 8
  %4 = invoke noundef ptr @_ZN11cache_sim_t9constructEPKcS1_(ptr noundef %.val2, ptr noundef nonnull @.str.118)
          to label %5 unwind label %11

5:                                                ; preds = %2
  %6 = getelementptr inbounds i8, ptr %3, i64 8
  store ptr %4, ptr %6, align 8
  store ptr getelementptr inbounds ({ [7 x ptr] }, ptr @_ZTV12dcache_sim_t, i64 0, i32 0, i64 2), ptr %3, align 8
  %7 = load ptr, ptr %.val, align 8
  store ptr %3, ptr %.val, align 8
  %.not.i.i.i.i.i = icmp eq ptr %7, null
  br i1 %.not.i.i.i.i.i, label %"_ZSt10__invoke_rIvRZ4mainE4$_12JPKcEENSt9enable_ifIX16is_invocable_r_vIT_T0_DpT1_EES5_E4typeEOS6_DpOS7_.exit", label %_ZNKSt14default_deleteI12dcache_sim_tEclEPS0_.exit.i.i.i.i.i

_ZNKSt14default_deleteI12dcache_sim_tEclEPS0_.exit.i.i.i.i.i: ; preds = %5
  %8 = load ptr, ptr %7, align 8
  %9 = getelementptr inbounds i8, ptr %8, i64 8
  %10 = load ptr, ptr %9, align 8
  tail call void %10(ptr noundef nonnull align 8 dereferenceable(16) %7) #34
  br label %"_ZSt10__invoke_rIvRZ4mainE4$_12JPKcEENSt9enable_ifIX16is_invocable_r_vIT_T0_DpT1_EES5_E4typeEOS6_DpOS7_.exit"

11:                                               ; preds = %2
  %12 = landingpad { ptr, i32 }
          cleanup
  tail call void @_ZdlPv(ptr noundef nonnull %3) #33
  resume { ptr, i32 } %12

"_ZSt10__invoke_rIvRZ4mainE4$_12JPKcEENSt9enable_ifIX16is_invocable_r_vIT_T0_DpT1_EES5_E4typeEOS6_DpOS7_.exit": ; preds = %5, %_ZNKSt14default_deleteI12dcache_sim_tEclEPS0_.exit.i.i.i.i.i
  ret void
}